******************************************************************************
             TMS320C2000 Linker PC v6.1.3                      
******************************************************************************
>> Linked Tue May 06 13:01:03 2014

OUTPUT FILE NAME:   <AVSS.out>
ENTRY POINT SYMBOL: "_c_int00"  address: 0000af40


MEMORY CONFIGURATION

         name            origin    length      used     unused   attr    fill
----------------------  --------  ---------  --------  --------  ----  --------
PAGE 0:
  BEGIN                 00000000   00000002  00000000  00000002  RWIX
  RAMM0                 00000050   000003b0  00000000  000003b0  RWIX
  RAML0                 00008000   00001000  000002d2  00000d2e  RWIX
  RAML1                 00009000   00001000  00000ff5  0000000b  RWIX
  RAML2                 0000a000   00001000  00000ff0  00000010  RWIX
  RAML3                 0000b000   00001000  00000032  00000fce  RWIX
  ZONE7A                00200000   0000fc00  00000000  0000fc00  RWIX
  CSM_RSVD              0033ff80   00000076  00000000  00000076  RWIX
  CSM_PWL               0033fff8   00000008  00000000  00000008  RWIX
  ADC_CAL               00380080   00000009  00000007  00000002  RWIX
  IQTABLES              003fe000   00000b50  00000000  00000b50  RWIX
  IQTABLES2             003feb50   0000008c  00000000  0000008c  RWIX
  FPUTABLES             003febdc   000006a0  00000000  000006a0  RWIX
  BOOTROM               003ff27c   00000d44  00000000  00000d44  RWIX
  RESET                 003fffc0   00000002  00000000  00000002  RWIX

PAGE 1:
  BOOT_RSVD             00000002   0000004e  00000000  0000004e  RWIX
  RAMM1                 00000400   00000400  00000300  00000100  RWIX
  DEV_EMU               00000880   00000180  000000d0  000000b0  RWIX
  FLASH_REGS            00000a80   00000060  00000008  00000058  RWIX
  CSM                   00000ae0   00000010  00000010  00000000  RWIX
  ADC_MIRROR            00000b00   00000010  00000010  00000000  RWIX
  XINTF                 00000b20   00000020  0000001e  00000002  RWIX
  CPU_TIMER0            00000c00   00000008  00000008  00000000  RWIX
  CPU_TIMER1            00000c08   00000008  00000008  00000000  RWIX
  CPU_TIMER2            00000c10   00000008  00000008  00000000  RWIX
  PIE_CTRL              00000ce0   00000020  0000001a  00000006  RWIX
  PIE_VECT              00000d00   00000100  00000100  00000000  RWIX
  DMA                   00001000   00000200  000000e0  00000120  RWIX
  MCBSPA                00005000   00000040  00000025  0000001b  RWIX
  MCBSPB                00005040   00000040  00000025  0000001b  RWIX
  ECANA                 00006000   00000040  00000034  0000000c  RWIX
  ECANA_LAM             00006040   00000040  00000040  00000000  RWIX
  ECANA_MOTS            00006080   00000040  00000040  00000000  RWIX
  ECANA_MOTO            000060c0   00000040  00000040  00000000  RWIX
  ECANA_MBOX            00006100   00000100  00000100  00000000  RWIX
  ECANB                 00006200   00000040  00000034  0000000c  RWIX
  ECANB_LAM             00006240   00000040  00000040  00000000  RWIX
  ECANB_MOTS            00006280   00000040  00000040  00000000  RWIX
  ECANB_MOTO            000062c0   00000040  00000040  00000000  RWIX
  ECANB_MBOX            00006300   00000100  00000100  00000000  RWIX
  EPWM1                 00006800   00000022  00000022  00000000  RWIX
  EPWM2                 00006840   00000022  00000022  00000000  RWIX
  EPWM3                 00006880   00000022  00000022  00000000  RWIX
  EPWM4                 000068c0   00000022  00000022  00000000  RWIX
  EPWM5                 00006900   00000022  00000022  00000000  RWIX
  EPWM6                 00006940   00000022  00000022  00000000  RWIX
  ECAP1                 00006a00   00000020  00000020  00000000  RWIX
  ECAP2                 00006a20   00000020  00000020  00000000  RWIX
  ECAP3                 00006a40   00000020  00000020  00000000  RWIX
  ECAP4                 00006a60   00000020  00000020  00000000  RWIX
  ECAP5                 00006a80   00000020  00000020  00000000  RWIX
  ECAP6                 00006aa0   00000020  00000020  00000000  RWIX
  EQEP1                 00006b00   00000040  00000040  00000000  RWIX
  EQEP2                 00006b40   00000040  00000040  00000000  RWIX
  GPIOCTRL              00006f80   00000040  0000002e  00000012  RWIX
  GPIODAT               00006fc0   00000020  00000020  00000000  RWIX
  GPIOINT               00006fe0   00000020  0000000a  00000016  RWIX
  SYSTEM                00007010   00000020  00000020  00000000  RWIX
  SPIA                  00007040   00000010  00000010  00000000  RWIX
  SCIA                  00007050   00000010  00000010  00000000  RWIX
  XINTRUPT              00007070   00000010  00000010  00000000  RWIX
  ADC                   00007100   00000020  0000001e  00000002  RWIX
  SCIB                  00007750   00000010  00000010  00000000  RWIX
  SCIC                  00007770   00000010  00000010  00000000  RWIX
  I2CA                  00007900   00000040  00000022  0000001e  RWIX
  RAML4                 0000c000   00001000  00000468  00000b98  RWIX
  RAML5                 0000d000   00001000  000006de  00000922  RWIX
  RAML6                 0000e000   00001000  00000000  00001000  RWIX
  RAML7                 0000f000   00001000  00000000  00001000  RWIX
  ZONE7B                0020fc00   00000400  00000000  00000400  RWIX
  CSM_PWL               0033fff8   00000008  00000008  00000000  RWIX
  PARTID                00380090   00000001  00000001  00000000  RWIX


SECTION ALLOCATION MAP

 output                                  attributes/
section   page    origin      length       input sections
--------  ----  ----------  ----------   ----------------
.pinit     0    00008000    00000000     UNINITIALIZED

.cinit     0    00008000    000002b3     
                  00008000    000001fa     ISRs.obj (.cinit)
                  000081fa    0000003c     fbcm_control.obj (.cinit)
                  00008236    0000002b     mppt.obj (.cinit)
                  00008261    0000001e     pid_control.obj (.cinit)
                  0000827f    00000012     fbcm_state_machine.obj (.cinit)
                  00008291    0000000a     rts2800_fpu32.lib : _lock.obj (.cinit)
                  0000829b    0000000a                       : exit.obj (.cinit)
                  000082a5    00000008     MainProg.obj (.cinit)
                  000082ad    00000004     central_control.obj (.cinit)
                  000082b1    00000002     --HOLE-- [fill = 0]

ramfuncs   0    000082b3    0000001f     
                  000082b3    0000001b     DSP2833x_SysCtrl.obj (ramfuncs)
                  000082ce    00000004     DSP2833x_usDelay.obj (ramfuncs)

.text.1    0    00009000    00000ff5     
                  00009000    00000a71     Debug.obj (.text)
                  00009a71    0000035b     ISRs.obj (.text:retain)
                  00009dcc    00000162     pid_control.obj (.text)
                  00009f2e    000000be     fbcm_state_machine.obj (.text)
                  00009fec    00000009     rts2800_fpu32.lib : _lock.obj (.text)

.text.2    0    0000a000    00000ff0     
                  0000a000    00000316     DSP2833x_DefaultIsr.obj (.text:retain)
                  0000a316    000002bd     fbcm_control.obj (.text)
                  0000a5d3    0000023d     PWM.obj (.text)
                  0000a810    0000015e     Gpio.obj (.text)
                  0000a96e    00000141     MainProg.obj (.text)
                  0000aaaf    000000f3     DSP2833x_SysCtrl.obj (.text)
                  0000aba2    000000d5     Timers.obj (.text)
                  0000ac77    000000a4     BoardInit.obj (.text)
                  0000ad1b    00000088     rts2800_fpu32.lib : fs_div.obj (.text)
                  0000ada3    00000086     Serial.obj (.text)
                  0000ae29    00000079     ADC.obj (.text)
                  0000aea2    00000058     central_control.obj (.text)
                  0000aefa    00000046     mppt.obj (.text)
                  0000af40    00000046     rts2800_fpu32.lib : boot.obj (.text)
                  0000af86    00000028     DSP2833x_PieCtrl.obj (.text)
                  0000afae    00000022     rts2800_fpu32.lib : i_div.obj (.text)
                  0000afd0    00000020     DSP2833x_PieVect.obj (.text)

.text.3    0    0000b000    00000032     
                  0000b000    00000019     rts2800_fpu32.lib : args_main.obj (.text)
                  0000b019    00000019                       : exit.obj (.text)

csm_rsvd   0    0033ff80    00000000     DSECT

csmpasswds 
*          0    0033fff8    00000000     DSECT

.adc_cal   0    00380080    00000007     NOLOAD SECTION
                  00380080    00000007     DSP2833x_ADC_cal.obj (.adc_cal)

.reset     0    003fffc0    00000002     DSECT
                  003fffc0    00000002     rts2800_fpu32.lib : boot.obj (.reset)

.stack     1    00000400    00000300     UNINITIALIZED
                  00000400    00000300     --HOLE--

DevEmuRegsFile 
*          1    00000880    000000d0     UNINITIALIZED
                  00000880    000000d0     Variables.obj (DevEmuRegsFile)

FlashRegsFile 
*          1    00000a80    00000008     UNINITIALIZED
                  00000a80    00000008     Variables.obj (FlashRegsFile)

CsmRegsFile 
*          1    00000ae0    00000010     UNINITIALIZED
                  00000ae0    00000010     Variables.obj (CsmRegsFile)

AdcMirrorFile 
*          1    00000b00    00000010     UNINITIALIZED
                  00000b00    00000010     Variables.obj (AdcMirrorFile)

XintfRegsFile 
*          1    00000b20    0000001e     UNINITIALIZED
                  00000b20    0000001e     Variables.obj (XintfRegsFile)

CpuTimer0RegsFile 
*          1    00000c00    00000008     UNINITIALIZED
                  00000c00    00000008     Variables.obj (CpuTimer0RegsFile)

CpuTimer1RegsFile 
*          1    00000c08    00000008     UNINITIALIZED
                  00000c08    00000008     Variables.obj (CpuTimer1RegsFile)

CpuTimer2RegsFile 
*          1    00000c10    00000008     UNINITIALIZED
                  00000c10    00000008     Variables.obj (CpuTimer2RegsFile)

PieCtrlRegsFile 
*          1    00000ce0    0000001a     UNINITIALIZED
                  00000ce0    0000001a     Variables.obj (PieCtrlRegsFile)

PieVectTableFile 
*          1    00000d00    00000100     UNINITIALIZED
                  00000d00    00000100     Variables.obj (PieVectTableFile)

DmaRegsFile 
*          1    00001000    000000e0     UNINITIALIZED
                  00001000    000000e0     Variables.obj (DmaRegsFile)

McbspaRegsFile 
*          1    00005000    00000025     UNINITIALIZED
                  00005000    00000025     Variables.obj (McbspaRegsFile)

McbspbRegsFile 
*          1    00005040    00000025     UNINITIALIZED
                  00005040    00000025     Variables.obj (McbspbRegsFile)

ECanaRegsFile 
*          1    00006000    00000034     UNINITIALIZED
                  00006000    00000034     Variables.obj (ECanaRegsFile)

ECanaLAMRegsFile 
*          1    00006040    00000040     UNINITIALIZED
                  00006040    00000040     Variables.obj (ECanaLAMRegsFile)

ECanaMOTSRegsFile 
*          1    00006080    00000040     UNINITIALIZED
                  00006080    00000040     Variables.obj (ECanaMOTSRegsFile)

ECanaMOTORegsFile 
*          1    000060c0    00000040     UNINITIALIZED
                  000060c0    00000040     Variables.obj (ECanaMOTORegsFile)

ECanaMboxesFile 
*          1    00006100    00000100     UNINITIALIZED
                  00006100    00000100     Variables.obj (ECanaMboxesFile)

ECanbRegsFile 
*          1    00006200    00000034     UNINITIALIZED
                  00006200    00000034     Variables.obj (ECanbRegsFile)

ECanbLAMRegsFile 
*          1    00006240    00000040     UNINITIALIZED
                  00006240    00000040     Variables.obj (ECanbLAMRegsFile)

ECanbMOTSRegsFile 
*          1    00006280    00000040     UNINITIALIZED
                  00006280    00000040     Variables.obj (ECanbMOTSRegsFile)

ECanbMOTORegsFile 
*          1    000062c0    00000040     UNINITIALIZED
                  000062c0    00000040     Variables.obj (ECanbMOTORegsFile)

ECanbMboxesFile 
*          1    00006300    00000100     UNINITIALIZED
                  00006300    00000100     Variables.obj (ECanbMboxesFile)

EPwm1RegsFile 
*          1    00006800    00000022     UNINITIALIZED
                  00006800    00000022     Variables.obj (EPwm1RegsFile)

EPwm2RegsFile 
*          1    00006840    00000022     UNINITIALIZED
                  00006840    00000022     Variables.obj (EPwm2RegsFile)

EPwm3RegsFile 
*          1    00006880    00000022     UNINITIALIZED
                  00006880    00000022     Variables.obj (EPwm3RegsFile)

EPwm4RegsFile 
*          1    000068c0    00000022     UNINITIALIZED
                  000068c0    00000022     Variables.obj (EPwm4RegsFile)

EPwm5RegsFile 
*          1    00006900    00000022     UNINITIALIZED
                  00006900    00000022     Variables.obj (EPwm5RegsFile)

EPwm6RegsFile 
*          1    00006940    00000022     UNINITIALIZED
                  00006940    00000022     Variables.obj (EPwm6RegsFile)

ECap1RegsFile 
*          1    00006a00    00000020     UNINITIALIZED
                  00006a00    00000020     Variables.obj (ECap1RegsFile)

ECap2RegsFile 
*          1    00006a20    00000020     UNINITIALIZED
                  00006a20    00000020     Variables.obj (ECap2RegsFile)

ECap3RegsFile 
*          1    00006a40    00000020     UNINITIALIZED
                  00006a40    00000020     Variables.obj (ECap3RegsFile)

ECap4RegsFile 
*          1    00006a60    00000020     UNINITIALIZED
                  00006a60    00000020     Variables.obj (ECap4RegsFile)

ECap5RegsFile 
*          1    00006a80    00000020     UNINITIALIZED
                  00006a80    00000020     Variables.obj (ECap5RegsFile)

ECap6RegsFile 
*          1    00006aa0    00000020     UNINITIALIZED
                  00006aa0    00000020     Variables.obj (ECap6RegsFile)

EQep1RegsFile 
*          1    00006b00    00000040     UNINITIALIZED
                  00006b00    00000040     Variables.obj (EQep1RegsFile)

EQep2RegsFile 
*          1    00006b40    00000040     UNINITIALIZED
                  00006b40    00000040     Variables.obj (EQep2RegsFile)

GpioCtrlRegsFile 
*          1    00006f80    0000002e     UNINITIALIZED
                  00006f80    0000002e     Variables.obj (GpioCtrlRegsFile)

GpioDataRegsFile 
*          1    00006fc0    00000020     UNINITIALIZED
                  00006fc0    00000020     Variables.obj (GpioDataRegsFile)

GpioIntRegsFile 
*          1    00006fe0    0000000a     UNINITIALIZED
                  00006fe0    0000000a     Variables.obj (GpioIntRegsFile)

SysCtrlRegsFile 
*          1    00007010    00000020     UNINITIALIZED
                  00007010    00000020     Variables.obj (SysCtrlRegsFile)

SpiaRegsFile 
*          1    00007040    00000010     UNINITIALIZED
                  00007040    00000010     Variables.obj (SpiaRegsFile)

SciaRegsFile 
*          1    00007050    00000010     UNINITIALIZED
                  00007050    00000010     Variables.obj (SciaRegsFile)

XIntruptRegsFile 
*          1    00007070    00000010     UNINITIALIZED
                  00007070    00000010     Variables.obj (XIntruptRegsFile)

AdcRegsFile 
*          1    00007100    0000001e     UNINITIALIZED
                  00007100    0000001e     Variables.obj (AdcRegsFile)

ScibRegsFile 
*          1    00007750    00000010     UNINITIALIZED
                  00007750    00000010     Variables.obj (ScibRegsFile)

ScicRegsFile 
*          1    00007770    00000010     UNINITIALIZED
                  00007770    00000010     Variables.obj (ScicRegsFile)

I2caRegsFile 
*          1    00007900    00000022     UNINITIALIZED
                  00007900    00000022     Variables.obj (I2caRegsFile)

.ebss      1    0000c000    00000468     UNINITIALIZED
                  0000c000    00000308     MainProg.obj (.ebss)
                  0000c308    00000030     pid_control.obj (.ebss)
                  0000c338    00000008     fbcm_state_machine.obj (.ebss)
                  0000c340    000000b1     ISRs.obj (.ebss)
                  0000c3f1    00000001     central_control.obj (.ebss)
                  0000c3f2    00000004     rts2800_fpu32.lib : _lock.obj (.ebss)
                  0000c3f6    00000004                       : exit.obj (.ebss)
                  0000c3fa    00000006     --HOLE--
                  0000c400    0000003c     fbcm_control.obj (.ebss)
                  0000c43c    00000004     --HOLE--
                  0000c440    00000018     Timers.obj (.ebss)
                  0000c458    00000010     mppt.obj (.ebss)

.econst    1    0000d000    000006de     
                  0000d000    00000100     DSP2833x_PieVect.obj (.econst)
                  0000d100    00000019     Debug.obj (.econst:.string:_$P$T0$1)
                  0000d119    00000019     Debug.obj (.econst:.string:_$P$T1$2)
                  0000d132    00000019     Debug.obj (.econst:.string:_$P$T10$11)
                  0000d14b    00000019     Debug.obj (.econst:.string:_$P$T11$12)
                  0000d164    00000019     Debug.obj (.econst:.string:_$P$T12$13)
                  0000d17d    00000019     Debug.obj (.econst:.string:_$P$T13$14)
                  0000d196    00000019     Debug.obj (.econst:.string:_$P$T14$15)
                  0000d1af    00000019     Debug.obj (.econst:.string:_$P$T15$16)
                  0000d1c8    00000019     Debug.obj (.econst:.string:_$P$T16$17)
                  0000d1e1    00000019     Debug.obj (.econst:.string:_$P$T17$18)
                  0000d1fa    00000019     Debug.obj (.econst:.string:_$P$T18$19)
                  0000d213    00000019     Debug.obj (.econst:.string:_$P$T19$20)
                  0000d22c    00000019     Debug.obj (.econst:.string:_$P$T2$3)
                  0000d245    00000019     Debug.obj (.econst:.string:_$P$T20$21)
                  0000d25e    00000019     Debug.obj (.econst:.string:_$P$T21$22)
                  0000d277    00000019     Debug.obj (.econst:.string:_$P$T22$23)
                  0000d290    00000019     Debug.obj (.econst:.string:_$P$T23$24)
                  0000d2a9    00000019     Debug.obj (.econst:.string:_$P$T24$25)
                  0000d2c2    00000019     Debug.obj (.econst:.string:_$P$T25$26)
                  0000d2db    00000019     Debug.obj (.econst:.string:_$P$T26$27)
                  0000d2f4    00000019     Debug.obj (.econst:.string:_$P$T27$28)
                  0000d30d    00000019     Debug.obj (.econst:.string:_$P$T28$29)
                  0000d326    00000019     Debug.obj (.econst:.string:_$P$T29$30)
                  0000d33f    00000019     Debug.obj (.econst:.string:_$P$T3$4)
                  0000d358    00000019     Debug.obj (.econst:.string:_$P$T30$31)
                  0000d371    00000019     Debug.obj (.econst:.string:_$P$T31$32)
                  0000d38a    00000019     Debug.obj (.econst:.string:_$P$T32$33)
                  0000d3a3    00000019     Debug.obj (.econst:.string:_$P$T33$34)
                  0000d3bc    00000019     Debug.obj (.econst:.string:_$P$T34$35)
                  0000d3d5    00000019     Debug.obj (.econst:.string:_$P$T35$36)
                  0000d3ee    00000019     Debug.obj (.econst:.string:_$P$T36$37)
                  0000d407    00000019     Debug.obj (.econst:.string:_$P$T37$38)
                  0000d420    00000019     Debug.obj (.econst:.string:_$P$T38$39)
                  0000d439    00000019     Debug.obj (.econst:.string:_$P$T39$40)
                  0000d452    00000019     Debug.obj (.econst:.string:_$P$T4$5)
                  0000d46b    00000019     Debug.obj (.econst:.string:_$P$T40$41)
                  0000d484    00000019     Debug.obj (.econst:.string:_$P$T41$42)
                  0000d49d    00000019     Debug.obj (.econst:.string:_$P$T42$43)
                  0000d4b6    00000019     Debug.obj (.econst:.string:_$P$T43$44)
                  0000d4cf    00000019     Debug.obj (.econst:.string:_$P$T44$45)
                  0000d4e8    00000019     Debug.obj (.econst:.string:_$P$T45$46)
                  0000d501    00000019     Debug.obj (.econst:.string:_$P$T46$47)
                  0000d51a    00000019     Debug.obj (.econst:.string:_$P$T47$48)
                  0000d533    00000019     Debug.obj (.econst:.string:_$P$T48$49)
                  0000d54c    00000019     Debug.obj (.econst:.string:_$P$T49$50)
                  0000d565    00000019     Debug.obj (.econst:.string:_$P$T5$6)
                  0000d57e    00000019     Debug.obj (.econst:.string:_$P$T50$51)
                  0000d597    00000019     Debug.obj (.econst:.string:_$P$T51$52)
                  0000d5b0    00000019     Debug.obj (.econst:.string:_$P$T52$53)
                  0000d5c9    00000019     Debug.obj (.econst:.string:_$P$T53$54)
                  0000d5e2    00000019     Debug.obj (.econst:.string:_$P$T54$55)
                  0000d5fb    00000019     Debug.obj (.econst:.string:_$P$T55$56)
                  0000d614    00000019     Debug.obj (.econst:.string:_$P$T56$57)
                  0000d62d    00000019     Debug.obj (.econst:.string:_$P$T57$58)
                  0000d646    00000019     Debug.obj (.econst:.string:_$P$T58$59)
                  0000d65f    00000019     Debug.obj (.econst:.string:_$P$T59$60)
                  0000d678    00000019     Debug.obj (.econst:.string:_$P$T6$7)
                  0000d691    00000019     Debug.obj (.econst:.string:_$P$T7$8)
                  0000d6aa    00000019     Debug.obj (.econst:.string:_$P$T8$9)
                  0000d6c3    00000019     Debug.obj (.econst:.string:_$P$T9$10)
                  0000d6dc    00000002     Debug.obj (.econst:.string)

CsmPwlFile 
*          1    0033fff8    00000008     UNINITIALIZED
                  0033fff8    00000008     Variables.obj (CsmPwlFile)

PartIdRegsFile 
*          1    00380090    00000001     UNINITIALIZED
                  00380090    00000001     Variables.obj (PartIdRegsFile)


GLOBAL SYMBOLS: SORTED ALPHABETICALLY BY Name 

address    name
--------   ----
ffffffff   .text
0000b019   C$$EXIT
0000ad1b   FS$$DIV
0000afae   I$$DIV
0000afbf   I$$MOD
0000c363   _ADCConversionEnd
0000a0e6   _ADCINT_ISR
0000c040   _ADCSensed_BATT1
0000c140   _ADCSensed_Curr1
0000c1c0   _ADCSensed_POL1
0000c0c0   _ADCSensed_POL2
0000c342   _ADC_Iin_Pol_1_3
0000c350   _ADC_Iin_Pol_2_4
0000c345   _ADC_VIn_Pol_1_3
0000c349   _ADC_VIn_Pol_2_4
00380080   _ADC_cal
00000b00   _AdcMirror
00007100   _AdcRegs
0000a8aa   _Batt1_To_SwBatt_Disable
0000a89c   _Batt1_To_SwBatt_Enable
0000a8c6   _Batt2_To_SwBatt_Disable
0000a8b8   _Batt2_To_SwBatt_Enable
0000a918   _Batt_1_2_Select
0000c340   _Batt_Vin_1_2
0000a9dc   _Command
0000ac3c   _ConfigCpuTimer
0000abf7   _ConfigTimer0
0000ac04   _ConfigTimer1
0000ac11   _ConfigTimer2
0000aea2   _Control
0000a96e   _ConvertStrToFloat
0000c450   _CpuTimer0
00000c00   _CpuTimer0Regs
0000c440   _CpuTimer1
00000c08   _CpuTimer1Regs
0000c448   _CpuTimer2
00000c10   _CpuTimer2Regs
0033fff8   _CsmPwl
00000ae0   _CsmRegs
0000ab71   _CsmUnlock
0000c37d   _Current_POL_1_3
0000c37c   _Current_POL_2_4
0000c381   _Current_X_FBCM
0000c388   _Current_X_In
0000c38f   _Current_Y_FBCM
0000c380   _Current_Y_In
0000c390   _Current_Z_FBCM
0000c37f   _Current_Z_In
0000a014   _DATALOG_ISR
0000a208   _DINTCH1_ISR
0000a212   _DINTCH2_ISR
0000a21c   _DINTCH3_ISR
0000a226   _DINTCH4_ISR
0000a230   _DINTCH5_ISR
0000a23a   _DINTCH6_ISR
000082ce   _DSP28x_usDelay
00009864   _Debug_ADC_Current_FBCM_1_In
0000993f   _Debug_ADC_Current_FBCM_1_Out
000098ad   _Debug_ADC_Current_FBCM_2_In
00009988   _Debug_ADC_Current_FBCM_2_Out
000098f6   _Debug_ADC_Current_FBCM_3_In
000099d1   _Debug_ADC_Current_FBCM_3_Out
000095e7   _Debug_ADC_Current_Pol_1
00009637   _Debug_ADC_Current_Pol_2
00009680   _Debug_ADC_Current_Pol_3
000096c9   _Debug_ADC_Current_Pol_4
00009138   _Debug_ADC_Val_00
0000915c   _Debug_ADC_Val_01
00009180   _Debug_ADC_Val_02
000091a4   _Debug_ADC_Val_03
000091c8   _Debug_ADC_Val_04
000091ec   _Debug_ADC_Val_05
00009210   _Debug_ADC_Val_06
00009234   _Debug_ADC_Val_07
00009258   _Debug_ADC_Val_08
0000927c   _Debug_ADC_Val_09
000092a0   _Debug_ADC_Val_10
000092c4   _Debug_ADC_Val_11
000092e8   _Debug_ADC_Val_12
0000930c   _Debug_ADC_Val_13
00009330   _Debug_ADC_Val_14
00009354   _Debug_ADC_Val_15
00009117   _Debug_ADC_Val_All
00009555   _Debug_ADC_Voltage_Batt_1
0000959e   _Debug_ADC_Voltage_Batt_2
00009789   _Debug_ADC_Voltage_FBCM_1_In
000097d2   _Debug_ADC_Voltage_FBCM_2_In
0000981b   _Debug_ADC_Voltage_FBCM_3_In
00009a1a   _Debug_ADC_Voltage_FBCM_Out
0000939c   _Debug_ADC_Voltage_Pol_1
000093f8   _Debug_ADC_Voltage_Pol_2
00009454   _Debug_ADC_Voltage_Pol_3
000094b0   _Debug_ADC_Voltage_Pol_4
0000950c   _Debug_ADC_Voltage_SWBatt
00009000   _Debug_ALL
0000983f   _Debug_Current_FBCM_1_In
0000991a   _Debug_Current_FBCM_1_Out
00009888   _Debug_Current_FBCM_2_In
00009963   _Debug_Current_FBCM_2_Out
000098d1   _Debug_Current_FBCM_3_In
000099ac   _Debug_Current_FBCM_3_Out
00009612   _Debug_Current_Pol_1
0000965b   _Debug_Current_Pol_2
000096a4   _Debug_Current_Pol_3
000096ed   _Debug_Current_Pol_4
00009a3e   _Debug_FBCM_1
00009a4f   _Debug_FBCM_2
00009a60   _Debug_FBCM_3
00009712   _Debug_PWM1A
0000973b   _Debug_PWM2A
00009378   _Debug_Pol_1
00009381   _Debug_Pol_2
0000938a   _Debug_Pol_3
00009393   _Debug_Pol_4
00009579   _Debug_Voltage_Batt_1
000095c2   _Debug_Voltage_Batt_2
00009764   _Debug_Voltage_FBCM_1_In
000097ad   _Debug_Voltage_FBCM_2_In
000097f6   _Debug_Voltage_FBCM_3_In
000099f5   _Debug_Voltage_FBCM_Out
000093c9   _Debug_Voltage_Pol_1
00009425   _Debug_Voltage_Pol_2
00009481   _Debug_Voltage_Pol_3
000094dd   _Debug_Voltage_Pol_4
00009530   _Debug_Voltage_SWBatt
00000880   _DevEmuRegs
0000aac2   _DisableDog
00001000   _DmaRegs
0000a294   _ECAN0INTA_ISR
0000a2a8   _ECAN0INTB_ISR
0000a29e   _ECAN1INTA_ISR
0000a2b2   _ECAN1INTB_ISR
0000a17c   _ECAP1_INT_ISR
0000a186   _ECAP2_INT_ISR
0000a190   _ECAP3_INT_ISR
0000a19a   _ECAP4_INT_ISR
0000a1a4   _ECAP5_INT_ISR
0000a1ae   _ECAP6_INT_ISR
00006040   _ECanaLAMRegs
000060c0   _ECanaMOTORegs
00006080   _ECanaMOTSRegs
00006100   _ECanaMboxes
00006000   _ECanaRegs
00006240   _ECanbLAMRegs
000062c0   _ECanbMOTORegs
00006280   _ECanbMOTSRegs
00006300   _ECanbMboxes
00006200   _ECanbRegs
00006a00   _ECap1Regs
00006a20   _ECap2Regs
00006a40   _ECap3Regs
00006a60   _ECap4Regs
00006a80   _ECap5Regs
00006aa0   _ECap6Regs
0000a028   _EMUINT_ISR
0000a140   _EPWM1_INT_ISR
0000a104   _EPWM1_TZINT_ISR
0000a14a   _EPWM2_INT_ISR
0000a10e   _EPWM2_TZINT_ISR
0000a154   _EPWM3_INT_ISR
0000a118   _EPWM3_TZINT_ISR
0000a15e   _EPWM4_INT_ISR
0000a122   _EPWM4_TZINT_ISR
0000a168   _EPWM5_INT_ISR
0000a12c   _EPWM5_TZINT_ISR
0000a172   _EPWM6_INT_ISR
0000a136   _EPWM6_TZINT_ISR
00006800   _EPwm1Regs
00006840   _EPwm2Regs
00006880   _EPwm3Regs
000068c0   _EPwm4Regs
00006900   _EPwm5Regs
00006940   _EPwm6Regs
0000a1b8   _EQEP1_INT_ISR
0000a1c2   _EQEP2_INT_ISR
00006b00   _EQep1Regs
00006b40   _EQep2Regs
0000afa5   _EnableInterrupts
0000c359   _FBCM1_Boost_EPwmOnTime
0000c357   _FBCM1_Buck_EPwmOnTime
0000c352   _FBCM1_PWM_Served
0000c000   _FBCM1_State
0000c35f   _FBCM2_Boost_EPwmOnTime
0000c358   _FBCM2_Buck_EPwmOnTime
0000c001   _FBCM2_State
0000c365   _FBCM3_Boost_EPwmOnTime
0000c366   _FBCM3_Buck_EPwmOnTime
0000a872   _FBCM_To_Batt1_Disable
0000a864   _FBCM_To_Batt1_Enable
0000a856   _FBCM_To_Batt2_Disable
0000a848   _FBCM_To_Batt2_Enable
0000a88e   _FBCM_To_SwBatt_Disable
0000a880   _FBCM_To_SwBatt_Enable
00000a80   _FlashRegs
00006f80   _GpioCtrlRegs
00006fc0   _GpioDataRegs
00006fe0   _GpioIntRegs
0000a244   _I2CINT1A_ISR
0000a24e   _I2CINT2A_ISR
00007900   _I2caRegs
0000a03c   _ILLEGAL_ISR
0000a000   _INT13_ISR
0000a00a   _INT14_ISR
0000ae29   _InitADC
0000ad02   _InitBoard
0000a674   _InitEPwm1
0000a6b8   _InitEPwm2
0000a700   _InitEPwm3
0000a744   _InitEPwm4
0000a788   _InitEPwm5
0000a7cc   _InitEPwm6
000082b3   _InitFlash
0000a810   _InitGpio
0000a5d3   _InitPWM
0000ab16   _InitPeripheralClocks
0000af86   _InitPieCtrl
0000afd0   _InitPieVectTable
0000aaca   _InitPll
0000a608   _InitPwm1Gpio
0000a61a   _InitPwm2Gpio
0000a62c   _InitPwm3Gpio
0000a640   _InitPwm4Gpio
0000a654   _InitPwm5Gpio
0000a664   _InitPwm6Gpio
0000ae13   _InitSciaGpio
0000ada3   _InitSerial
0000aaaf   _InitSysCtrl
0000aba2   _InitTimers
0000ac77   _InitValues
0000a2f8   _LUF_ISR
0000a2ee   _LVF_ISR
0000a1f4   _MRINTA_ISR
0000a1e0   _MRINTB_ISR
0000a1fe   _MXINTA_ISR
0000a1ea   _MXINTB_ISR
00005000   _McbspaRegs
00005040   _McbspbRegs
0000a032   _NMI_ISR
00009029   _New_Line
0000a302   _PIE_RESERVED
0000c361   _POL1_EPwmOnTime
0000c360   _POL2_EPwmOnTime
0000c362   _POL3_EPwmOnTime
0000c364   _POL4_EPwmOnTime
00380090   _PartIdRegs
00000ce0   _PieCtrlRegs
00000d00   _PieVectTable
0000d000   _PieVectTableInit
0000a932   _Pol_1_3_CS_Select
0000a8d4   _Pol_1_3_Out_Select
0000a954   _Pol_2_4_CS_Select
0000a8f6   _Pol_2_4_Out_Select
0000906c   _Print_Float
0000902d   _Print_Integer
0000a01e   _RTOSINT_ISR
0000c354   _Received
0000c3d8   _ReceivedStr
0000c35c   _RequiredADCCount_FBCM1
0000c35a   _RequiredADCCount_FBCM2
0000c35b   _RequiredADCCount_FBCM3
0000c355   _RequiredADCCount_POL1
0000c356   _RequiredADCCount_POL2
0000c35d   _RequiredADCCount_POL3
0000c35e   _RequiredADCCount_POL4
0000a26c   _SCIRXINTA_ISR
0000a280   _SCIRXINTB_ISR
0000a258   _SCIRXINTC_ISR
0000a276   _SCITXINTA_ISR
0000a28a   _SCITXINTB_ISR
0000a262   _SCITXINTC_ISR
0000a0be   _SEQ1INT_ISR
0000a0c8   _SEQ2INT_ISR
0000a1cc   _SPIRXINTA_ISR
0000a1d6   _SPITXINTA_ISR
00007050   _SciaRegs
00007750   _ScibRegs
00007770   _ScicRegs
0000c341   _SensedADC_BATT_1
0000c348   _SensedADC_BATT_2
0000c3be   _SensedADC_CUR_1
0000c368   _SensedADC_CUR_2
0000c369   _SensedADC_CUR_3
0000c367   _SensedADC_CUR_4
0000c34d   _SensedADC_Cur_FBCM_X
0000c34b   _SensedADC_Cur_FBCM_Y
0000c34c   _SensedADC_Cur_FBCM_Z
0000c386   _SensedADC_Cur_X_In
0000c387   _SensedADC_Cur_Y_In
0000c384   _SensedADC_Cur_Z_In
0000c382   _SensedADC_FBCM_Out
0000c351   _SensedADC_POL_1
0000c34a   _SensedADC_POL_2
0000c343   _SensedADC_POL_3
0000c344   _SensedADC_POL_4
0000c347   _SensedADC_SWBATT
0000c38e   _SensedADC_X_In
0000c391   _SensedADC_Y_In
0000c383   _SensedADC_Z_In
0000c39e   _SensedCurrent_FBCM_X
0000c39a   _SensedCurrent_FBCM_X_average
0000c3a0   _SensedCurrent_FBCM_Y
0000c39c   _SensedCurrent_FBCM_Z
0000c3d4   _SensedCurrent_POL_1
0000c3d6   _SensedCurrent_POL_2
0000c3d2   _SensedCurrent_POL_3
0000c3d0   _SensedCurrent_POL_4
0000c3b6   _SensedCurrent_X_In
0000c3b0   _SensedCurrent_Y_In
0000c3b2   _SensedCurrent_Z_In
0000c3ce   _SensedVoltage_BATT_1
0000c3ca   _SensedVoltage_BATT_2
0000c3b4   _SensedVoltage_FBCM_Out
0000c3a6   _SensedVoltage_POL_1
0000c3a8   _SensedVoltage_POL_2
0000c3a2   _SensedVoltage_POL_3
0000c3a4   _SensedVoltage_POL_4
0000c3cc   _SensedVoltage_SWBATT
0000c3ae   _SensedVoltage_X_In
0000c3aa   _SensedVoltage_Y_In
0000c3ac   _SensedVoltage_Z_In
0000aab8   _ServiceDog
0000c3c2   _SetOutputCurrent_FBCM
0000c3c0   _SetOutputVoltage_FBCM
0000c3b8   _SetOutputVoltage_POL1
0000c3ba   _SetOutputVoltage_POL2
0000c3c4   _SetOutputVoltage_POL3
0000c3c6   _SetOutputVoltage_POL4
0000a82c   _Solar_Power_Available
0000a83a   _Solar_Power_UnAvailable
00007040   _SpiaRegs
0000ae9d   _StartADC_Seq1
0000ac1e   _StartTimer0
0000ac23   _StartTimer1
0000ac28   _StartTimer2
0000ac2d   _StopTimer0
0000ac32   _StopTimer1
0000ac37   _StopTimer2
00007010   _SysCtrlRegs
0000a0f0   _TINT0_ISR
0000c346   _UARTTransmit
0000a0a0   _USER10_ISR
0000a0aa   _USER11_ISR
0000a0b4   _USER12_ISR
0000a046   _USER1_ISR
0000a050   _USER2_ISR
0000a05a   _USER3_ISR
0000a064   _USER4_ISR
0000a06e   _USER5_ISR
0000a078   _USER6_ISR
0000a082   _USER7_ISR
0000a08c   _USER8_ISR
0000a096   _USER9_ISR
0000c240   _VoltSensed
0000c376   _Voltage_BATT_1_2
0000c385   _Voltage_FBCM_Out
0000c392   _Voltage_POL_1_3
0000c37a   _Voltage_POL_2_4
0000c37e   _Voltage_SWBATT
0000c34f   _Voltage_X_In
0000c34e   _Voltage_Y_In
0000c36a   _Voltage_Z_In
0000a0fa   _WAKEINT_ISR
0000a0d2   _XINT1_ISR
0000a0dc   _XINT2_ISR
0000a2bc   _XINT3_ISR
0000a2c6   _XINT4_ISR
0000a2d0   _XINT5_ISR
0000a2da   _XINT6_ISR
0000a2e4   _XINT7_ISR
00007070   _XIntruptRegs
00000b20   _XintfRegs
00000700   __STACK_END
00000300   __STACK_SIZE
00000001   __TI_args_main
ffffffff   ___binit__
ffffffff   ___c_args__
00008000   ___cinit__
ffffffff   ___etext__
ffffffff   ___pinit__
ffffffff   ___text__
0000b000   __args_main
0000c3f6   __cleanup_ptr
0000c3f8   __dtors_ptr
0000c3f4   __lock
00009ff4   __nop
00009ff0   __register_lock
00009fec   __register_unlock
00000400   __stack
0000c3f2   __unlock
0000b019   _abort
00009a71   _adc_isr
0000adc2   _autobaud
0000af40   _c_int00
0000c339   _charging1_mode
0000c3f1   _cnt
0000a41e   _control_fbcm1_cc
0000a316   _control_fbcm1_cv
00009d1d   _cpu_timer0_isr
00009d4d   _cpu_timer1_isr
00009d5a   _cpu_timer2_isr
0000c394   _current
0000c375   _current_counter
0000c398   _current_x
0000c33e   _duty_ratio_mppt
0000c33a   _duty_ratio_output_reg
00009c2f   _epwm1_isr
00009c6d   _epwm2_isr
00009c8c   _epwm3_isr
00009ccc   _epwm4_isr
00009ceb   _epwm5_isr
00009d04   _epwm6_isr
0000b01b   _exit
0000c338   _fbcm1_mode
00009f2e   _fbcm_mode_select
0000c430   _fbcm_x
0000a573   _input_control_fbcm_x
0000aa89   _main
0000c458   _mppt_counter
0000aefa   _mppt_fbcm_x
0000c424   _pid_FBCM_boost
0000c40c   _pid_FBCM_boost_o
0000c418   _pid_FBCM_buck
0000c400   _pid_FBCM_buck_o
0000c320   _pid_FDPOL1_Vout
0000c308   _pid_FDPOL2_Vout
0000c32c   _pid_FDPOL3_Vout
0000c314   _pid_FDPOL4_Vout
00009e7a   _pid_control_boost2
00009ed4   _pid_control_boost4
00009dcc   _pid_control_buck1
00009e23   _pid_control_buck3
0000a30c   _rsvd_ISR
00009d67   _rxaint_isr
0000add7   _scia_echoback_init
0000ae0b   _scia_fifo_init
0000adc3   _scia_init
0000adf6   _scia_msg
0000adea   _scia_xmit
0000c3c8   _sensed_node_voltage
0000c3bc   _sensed_node_voltage_prev
0000c378   _switch_counter
00009dbb   _txaint_isr
0000c37b   _uiADC00
0000c36f   _uiADC01
0000c36d   _uiADC02
0000c36e   _uiADC03
0000c36b   _uiADC04
0000c36c   _uiADC05
0000c374   _uiADC06
0000c372   _uiADC07
0000c373   _uiADC08
0000c370   _uiADC09
0000c371   _uiADC10
0000c38d   _uiADC11
0000c38b   _uiADC12
0000c38c   _uiADC13
0000c389   _uiADC14
0000c38a   _uiADC15
0000c459   _updown
0000c33c   _voltage_battery
0000c396   _voltage_ref
0000c45c   _x_current
0000c464   _x_panel_current
0000c460   _x_panel_voltage
0000c45e   _x_panel_voltage_ref
0000c45a   _x_power
0000c466   _x_prev_power
0000c462   _x_voltage
ffffffff   binit
00008000   cinit
ffffffff   etext
ffffffff   pinit


GLOBAL SYMBOLS: SORTED BY Symbol Address 

address    name
--------   ----
00000001   __TI_args_main
00000300   __STACK_SIZE
00000400   __stack
00000700   __STACK_END
00000880   _DevEmuRegs
00000a80   _FlashRegs
00000ae0   _CsmRegs
00000b00   _AdcMirror
00000b20   _XintfRegs
00000c00   _CpuTimer0Regs
00000c08   _CpuTimer1Regs
00000c10   _CpuTimer2Regs
00000ce0   _PieCtrlRegs
00000d00   _PieVectTable
00001000   _DmaRegs
00005000   _McbspaRegs
00005040   _McbspbRegs
00006000   _ECanaRegs
00006040   _ECanaLAMRegs
00006080   _ECanaMOTSRegs
000060c0   _ECanaMOTORegs
00006100   _ECanaMboxes
00006200   _ECanbRegs
00006240   _ECanbLAMRegs
00006280   _ECanbMOTSRegs
000062c0   _ECanbMOTORegs
00006300   _ECanbMboxes
00006800   _EPwm1Regs
00006840   _EPwm2Regs
00006880   _EPwm3Regs
000068c0   _EPwm4Regs
00006900   _EPwm5Regs
00006940   _EPwm6Regs
00006a00   _ECap1Regs
00006a20   _ECap2Regs
00006a40   _ECap3Regs
00006a60   _ECap4Regs
00006a80   _ECap5Regs
00006aa0   _ECap6Regs
00006b00   _EQep1Regs
00006b40   _EQep2Regs
00006f80   _GpioCtrlRegs
00006fc0   _GpioDataRegs
00006fe0   _GpioIntRegs
00007010   _SysCtrlRegs
00007040   _SpiaRegs
00007050   _SciaRegs
00007070   _XIntruptRegs
00007100   _AdcRegs
00007750   _ScibRegs
00007770   _ScicRegs
00007900   _I2caRegs
00008000   ___cinit__
00008000   cinit
000082b3   _InitFlash
000082ce   _DSP28x_usDelay
00009000   _Debug_ALL
00009029   _New_Line
0000902d   _Print_Integer
0000906c   _Print_Float
00009117   _Debug_ADC_Val_All
00009138   _Debug_ADC_Val_00
0000915c   _Debug_ADC_Val_01
00009180   _Debug_ADC_Val_02
000091a4   _Debug_ADC_Val_03
000091c8   _Debug_ADC_Val_04
000091ec   _Debug_ADC_Val_05
00009210   _Debug_ADC_Val_06
00009234   _Debug_ADC_Val_07
00009258   _Debug_ADC_Val_08
0000927c   _Debug_ADC_Val_09
000092a0   _Debug_ADC_Val_10
000092c4   _Debug_ADC_Val_11
000092e8   _Debug_ADC_Val_12
0000930c   _Debug_ADC_Val_13
00009330   _Debug_ADC_Val_14
00009354   _Debug_ADC_Val_15
00009378   _Debug_Pol_1
00009381   _Debug_Pol_2
0000938a   _Debug_Pol_3
00009393   _Debug_Pol_4
0000939c   _Debug_ADC_Voltage_Pol_1
000093c9   _Debug_Voltage_Pol_1
000093f8   _Debug_ADC_Voltage_Pol_2
00009425   _Debug_Voltage_Pol_2
00009454   _Debug_ADC_Voltage_Pol_3
00009481   _Debug_Voltage_Pol_3
000094b0   _Debug_ADC_Voltage_Pol_4
000094dd   _Debug_Voltage_Pol_4
0000950c   _Debug_ADC_Voltage_SWBatt
00009530   _Debug_Voltage_SWBatt
00009555   _Debug_ADC_Voltage_Batt_1
00009579   _Debug_Voltage_Batt_1
0000959e   _Debug_ADC_Voltage_Batt_2
000095c2   _Debug_Voltage_Batt_2
000095e7   _Debug_ADC_Current_Pol_1
00009612   _Debug_Current_Pol_1
00009637   _Debug_ADC_Current_Pol_2
0000965b   _Debug_Current_Pol_2
00009680   _Debug_ADC_Current_Pol_3
000096a4   _Debug_Current_Pol_3
000096c9   _Debug_ADC_Current_Pol_4
000096ed   _Debug_Current_Pol_4
00009712   _Debug_PWM1A
0000973b   _Debug_PWM2A
00009764   _Debug_Voltage_FBCM_1_In
00009789   _Debug_ADC_Voltage_FBCM_1_In
000097ad   _Debug_Voltage_FBCM_2_In
000097d2   _Debug_ADC_Voltage_FBCM_2_In
000097f6   _Debug_Voltage_FBCM_3_In
0000981b   _Debug_ADC_Voltage_FBCM_3_In
0000983f   _Debug_Current_FBCM_1_In
00009864   _Debug_ADC_Current_FBCM_1_In
00009888   _Debug_Current_FBCM_2_In
000098ad   _Debug_ADC_Current_FBCM_2_In
000098d1   _Debug_Current_FBCM_3_In
000098f6   _Debug_ADC_Current_FBCM_3_In
0000991a   _Debug_Current_FBCM_1_Out
0000993f   _Debug_ADC_Current_FBCM_1_Out
00009963   _Debug_Current_FBCM_2_Out
00009988   _Debug_ADC_Current_FBCM_2_Out
000099ac   _Debug_Current_FBCM_3_Out
000099d1   _Debug_ADC_Current_FBCM_3_Out
000099f5   _Debug_Voltage_FBCM_Out
00009a1a   _Debug_ADC_Voltage_FBCM_Out
00009a3e   _Debug_FBCM_1
00009a4f   _Debug_FBCM_2
00009a60   _Debug_FBCM_3
00009a71   _adc_isr
00009c2f   _epwm1_isr
00009c6d   _epwm2_isr
00009c8c   _epwm3_isr
00009ccc   _epwm4_isr
00009ceb   _epwm5_isr
00009d04   _epwm6_isr
00009d1d   _cpu_timer0_isr
00009d4d   _cpu_timer1_isr
00009d5a   _cpu_timer2_isr
00009d67   _rxaint_isr
00009dbb   _txaint_isr
00009dcc   _pid_control_buck1
00009e23   _pid_control_buck3
00009e7a   _pid_control_boost2
00009ed4   _pid_control_boost4
00009f2e   _fbcm_mode_select
00009fec   __register_unlock
00009ff0   __register_lock
00009ff4   __nop
0000a000   _INT13_ISR
0000a00a   _INT14_ISR
0000a014   _DATALOG_ISR
0000a01e   _RTOSINT_ISR
0000a028   _EMUINT_ISR
0000a032   _NMI_ISR
0000a03c   _ILLEGAL_ISR
0000a046   _USER1_ISR
0000a050   _USER2_ISR
0000a05a   _USER3_ISR
0000a064   _USER4_ISR
0000a06e   _USER5_ISR
0000a078   _USER6_ISR
0000a082   _USER7_ISR
0000a08c   _USER8_ISR
0000a096   _USER9_ISR
0000a0a0   _USER10_ISR
0000a0aa   _USER11_ISR
0000a0b4   _USER12_ISR
0000a0be   _SEQ1INT_ISR
0000a0c8   _SEQ2INT_ISR
0000a0d2   _XINT1_ISR
0000a0dc   _XINT2_ISR
0000a0e6   _ADCINT_ISR
0000a0f0   _TINT0_ISR
0000a0fa   _WAKEINT_ISR
0000a104   _EPWM1_TZINT_ISR
0000a10e   _EPWM2_TZINT_ISR
0000a118   _EPWM3_TZINT_ISR
0000a122   _EPWM4_TZINT_ISR
0000a12c   _EPWM5_TZINT_ISR
0000a136   _EPWM6_TZINT_ISR
0000a140   _EPWM1_INT_ISR
0000a14a   _EPWM2_INT_ISR
0000a154   _EPWM3_INT_ISR
0000a15e   _EPWM4_INT_ISR
0000a168   _EPWM5_INT_ISR
0000a172   _EPWM6_INT_ISR
0000a17c   _ECAP1_INT_ISR
0000a186   _ECAP2_INT_ISR
0000a190   _ECAP3_INT_ISR
0000a19a   _ECAP4_INT_ISR
0000a1a4   _ECAP5_INT_ISR
0000a1ae   _ECAP6_INT_ISR
0000a1b8   _EQEP1_INT_ISR
0000a1c2   _EQEP2_INT_ISR
0000a1cc   _SPIRXINTA_ISR
0000a1d6   _SPITXINTA_ISR
0000a1e0   _MRINTB_ISR
0000a1ea   _MXINTB_ISR
0000a1f4   _MRINTA_ISR
0000a1fe   _MXINTA_ISR
0000a208   _DINTCH1_ISR
0000a212   _DINTCH2_ISR
0000a21c   _DINTCH3_ISR
0000a226   _DINTCH4_ISR
0000a230   _DINTCH5_ISR
0000a23a   _DINTCH6_ISR
0000a244   _I2CINT1A_ISR
0000a24e   _I2CINT2A_ISR
0000a258   _SCIRXINTC_ISR
0000a262   _SCITXINTC_ISR
0000a26c   _SCIRXINTA_ISR
0000a276   _SCITXINTA_ISR
0000a280   _SCIRXINTB_ISR
0000a28a   _SCITXINTB_ISR
0000a294   _ECAN0INTA_ISR
0000a29e   _ECAN1INTA_ISR
0000a2a8   _ECAN0INTB_ISR
0000a2b2   _ECAN1INTB_ISR
0000a2bc   _XINT3_ISR
0000a2c6   _XINT4_ISR
0000a2d0   _XINT5_ISR
0000a2da   _XINT6_ISR
0000a2e4   _XINT7_ISR
0000a2ee   _LVF_ISR
0000a2f8   _LUF_ISR
0000a302   _PIE_RESERVED
0000a30c   _rsvd_ISR
0000a316   _control_fbcm1_cv
0000a41e   _control_fbcm1_cc
0000a573   _input_control_fbcm_x
0000a5d3   _InitPWM
0000a608   _InitPwm1Gpio
0000a61a   _InitPwm2Gpio
0000a62c   _InitPwm3Gpio
0000a640   _InitPwm4Gpio
0000a654   _InitPwm5Gpio
0000a664   _InitPwm6Gpio
0000a674   _InitEPwm1
0000a6b8   _InitEPwm2
0000a700   _InitEPwm3
0000a744   _InitEPwm4
0000a788   _InitEPwm5
0000a7cc   _InitEPwm6
0000a810   _InitGpio
0000a82c   _Solar_Power_Available
0000a83a   _Solar_Power_UnAvailable
0000a848   _FBCM_To_Batt2_Enable
0000a856   _FBCM_To_Batt2_Disable
0000a864   _FBCM_To_Batt1_Enable
0000a872   _FBCM_To_Batt1_Disable
0000a880   _FBCM_To_SwBatt_Enable
0000a88e   _FBCM_To_SwBatt_Disable
0000a89c   _Batt1_To_SwBatt_Enable
0000a8aa   _Batt1_To_SwBatt_Disable
0000a8b8   _Batt2_To_SwBatt_Enable
0000a8c6   _Batt2_To_SwBatt_Disable
0000a8d4   _Pol_1_3_Out_Select
0000a8f6   _Pol_2_4_Out_Select
0000a918   _Batt_1_2_Select
0000a932   _Pol_1_3_CS_Select
0000a954   _Pol_2_4_CS_Select
0000a96e   _ConvertStrToFloat
0000a9dc   _Command
0000aa89   _main
0000aaaf   _InitSysCtrl
0000aab8   _ServiceDog
0000aac2   _DisableDog
0000aaca   _InitPll
0000ab16   _InitPeripheralClocks
0000ab71   _CsmUnlock
0000aba2   _InitTimers
0000abf7   _ConfigTimer0
0000ac04   _ConfigTimer1
0000ac11   _ConfigTimer2
0000ac1e   _StartTimer0
0000ac23   _StartTimer1
0000ac28   _StartTimer2
0000ac2d   _StopTimer0
0000ac32   _StopTimer1
0000ac37   _StopTimer2
0000ac3c   _ConfigCpuTimer
0000ac77   _InitValues
0000ad02   _InitBoard
0000ad1b   FS$$DIV
0000ada3   _InitSerial
0000adc2   _autobaud
0000adc3   _scia_init
0000add7   _scia_echoback_init
0000adea   _scia_xmit
0000adf6   _scia_msg
0000ae0b   _scia_fifo_init
0000ae13   _InitSciaGpio
0000ae29   _InitADC
0000ae9d   _StartADC_Seq1
0000aea2   _Control
0000aefa   _mppt_fbcm_x
0000af40   _c_int00
0000af86   _InitPieCtrl
0000afa5   _EnableInterrupts
0000afae   I$$DIV
0000afbf   I$$MOD
0000afd0   _InitPieVectTable
0000b000   __args_main
0000b019   C$$EXIT
0000b019   _abort
0000b01b   _exit
0000c000   _FBCM1_State
0000c001   _FBCM2_State
0000c040   _ADCSensed_BATT1
0000c0c0   _ADCSensed_POL2
0000c140   _ADCSensed_Curr1
0000c1c0   _ADCSensed_POL1
0000c240   _VoltSensed
0000c308   _pid_FDPOL2_Vout
0000c314   _pid_FDPOL4_Vout
0000c320   _pid_FDPOL1_Vout
0000c32c   _pid_FDPOL3_Vout
0000c338   _fbcm1_mode
0000c339   _charging1_mode
0000c33a   _duty_ratio_output_reg
0000c33c   _voltage_battery
0000c33e   _duty_ratio_mppt
0000c340   _Batt_Vin_1_2
0000c341   _SensedADC_BATT_1
0000c342   _ADC_Iin_Pol_1_3
0000c343   _SensedADC_POL_3
0000c344   _SensedADC_POL_4
0000c345   _ADC_VIn_Pol_1_3
0000c346   _UARTTransmit
0000c347   _SensedADC_SWBATT
0000c348   _SensedADC_BATT_2
0000c349   _ADC_VIn_Pol_2_4
0000c34a   _SensedADC_POL_2
0000c34b   _SensedADC_Cur_FBCM_Y
0000c34c   _SensedADC_Cur_FBCM_Z
0000c34d   _SensedADC_Cur_FBCM_X
0000c34e   _Voltage_Y_In
0000c34f   _Voltage_X_In
0000c350   _ADC_Iin_Pol_2_4
0000c351   _SensedADC_POL_1
0000c352   _FBCM1_PWM_Served
0000c354   _Received
0000c355   _RequiredADCCount_POL1
0000c356   _RequiredADCCount_POL2
0000c357   _FBCM1_Buck_EPwmOnTime
0000c358   _FBCM2_Buck_EPwmOnTime
0000c359   _FBCM1_Boost_EPwmOnTime
0000c35a   _RequiredADCCount_FBCM2
0000c35b   _RequiredADCCount_FBCM3
0000c35c   _RequiredADCCount_FBCM1
0000c35d   _RequiredADCCount_POL3
0000c35e   _RequiredADCCount_POL4
0000c35f   _FBCM2_Boost_EPwmOnTime
0000c360   _POL2_EPwmOnTime
0000c361   _POL1_EPwmOnTime
0000c362   _POL3_EPwmOnTime
0000c363   _ADCConversionEnd
0000c364   _POL4_EPwmOnTime
0000c365   _FBCM3_Boost_EPwmOnTime
0000c366   _FBCM3_Buck_EPwmOnTime
0000c367   _SensedADC_CUR_4
0000c368   _SensedADC_CUR_2
0000c369   _SensedADC_CUR_3
0000c36a   _Voltage_Z_In
0000c36b   _uiADC04
0000c36c   _uiADC05
0000c36d   _uiADC02
0000c36e   _uiADC03
0000c36f   _uiADC01
0000c370   _uiADC09
0000c371   _uiADC10
0000c372   _uiADC07
0000c373   _uiADC08
0000c374   _uiADC06
0000c375   _current_counter
0000c376   _Voltage_BATT_1_2
0000c378   _switch_counter
0000c37a   _Voltage_POL_2_4
0000c37b   _uiADC00
0000c37c   _Current_POL_2_4
0000c37d   _Current_POL_1_3
0000c37e   _Voltage_SWBATT
0000c37f   _Current_Z_In
0000c380   _Current_Y_In
0000c381   _Current_X_FBCM
0000c382   _SensedADC_FBCM_Out
0000c383   _SensedADC_Z_In
0000c384   _SensedADC_Cur_Z_In
0000c385   _Voltage_FBCM_Out
0000c386   _SensedADC_Cur_X_In
0000c387   _SensedADC_Cur_Y_In
0000c388   _Current_X_In
0000c389   _uiADC14
0000c38a   _uiADC15
0000c38b   _uiADC12
0000c38c   _uiADC13
0000c38d   _uiADC11
0000c38e   _SensedADC_X_In
0000c38f   _Current_Y_FBCM
0000c390   _Current_Z_FBCM
0000c391   _SensedADC_Y_In
0000c392   _Voltage_POL_1_3
0000c394   _current
0000c396   _voltage_ref
0000c398   _current_x
0000c39a   _SensedCurrent_FBCM_X_average
0000c39c   _SensedCurrent_FBCM_Z
0000c39e   _SensedCurrent_FBCM_X
0000c3a0   _SensedCurrent_FBCM_Y
0000c3a2   _SensedVoltage_POL_3
0000c3a4   _SensedVoltage_POL_4
0000c3a6   _SensedVoltage_POL_1
0000c3a8   _SensedVoltage_POL_2
0000c3aa   _SensedVoltage_Y_In
0000c3ac   _SensedVoltage_Z_In
0000c3ae   _SensedVoltage_X_In
0000c3b0   _SensedCurrent_Y_In
0000c3b2   _SensedCurrent_Z_In
0000c3b4   _SensedVoltage_FBCM_Out
0000c3b6   _SensedCurrent_X_In
0000c3b8   _SetOutputVoltage_POL1
0000c3ba   _SetOutputVoltage_POL2
0000c3bc   _sensed_node_voltage_prev
0000c3be   _SensedADC_CUR_1
0000c3c0   _SetOutputVoltage_FBCM
0000c3c2   _SetOutputCurrent_FBCM
0000c3c4   _SetOutputVoltage_POL3
0000c3c6   _SetOutputVoltage_POL4
0000c3c8   _sensed_node_voltage
0000c3ca   _SensedVoltage_BATT_2
0000c3cc   _SensedVoltage_SWBATT
0000c3ce   _SensedVoltage_BATT_1
0000c3d0   _SensedCurrent_POL_4
0000c3d2   _SensedCurrent_POL_3
0000c3d4   _SensedCurrent_POL_1
0000c3d6   _SensedCurrent_POL_2
0000c3d8   _ReceivedStr
0000c3f1   _cnt
0000c3f2   __unlock
0000c3f4   __lock
0000c3f6   __cleanup_ptr
0000c3f8   __dtors_ptr
0000c400   _pid_FBCM_buck_o
0000c40c   _pid_FBCM_boost_o
0000c418   _pid_FBCM_buck
0000c424   _pid_FBCM_boost
0000c430   _fbcm_x
0000c440   _CpuTimer1
0000c448   _CpuTimer2
0000c450   _CpuTimer0
0000c458   _mppt_counter
0000c459   _updown
0000c45a   _x_power
0000c45c   _x_current
0000c45e   _x_panel_voltage_ref
0000c460   _x_panel_voltage
0000c462   _x_voltage
0000c464   _x_panel_current
0000c466   _x_prev_power
0000d000   _PieVectTableInit
0033fff8   _CsmPwl
00380080   _ADC_cal
00380090   _PartIdRegs
ffffffff   .text
ffffffff   ___binit__
ffffffff   ___c_args__
ffffffff   ___etext__
ffffffff   ___pinit__
ffffffff   ___text__
ffffffff   binit
ffffffff   etext
ffffffff   pinit

[472 symbols]
